Certificate:
    Data:
        Version: 3 (0x2)
        Serial Number: 46 (0x2e)
    Signature Algorithm: sha1WithRSAEncryption
        Issuer: C=UK, ST=Derbyshire, L=Derby, O=University of Derby, OU=School of Computing and Mathematics, CN=5CC515
        Validity
            Not Before: Nov 25 19:17:19 2012 GMT
            Not After : Nov 25 19:17:19 2013 GMT
        Subject: C=UK, ST=Derbyshire, O=University of Derby, OU=School of Computing and Mathematics, CN=100215286
        Subject Public Key Info:
            Public Key Algorithm: rsaEncryption
                Public-Key: (2048 bit)
                Modulus:
                    00:b9:f9:54:9d:d0:b7:85:96:42:2d:7a:1b:b4:c4:
                    a0:51:f7:b3:05:6f:16:80:9e:29:54:2b:8e:00:bb:
                    69:1e:ae:d1:c1:29:d9:ca:19:4f:d2:97:95:a9:21:
                    ad:e3:36:54:f2:c8:34:c4:62:ca:cf:88:98:8d:dc:
                    b0:32:1c:45:2d:7c:2c:25:40:96:91:b8:bd:59:80:
                    39:9f:5e:ba:97:f3:84:fe:a3:05:c5:01:3a:44:b8:
                    ed:13:2c:a2:29:70:8e:ed:4f:b1:15:c6:05:c5:88:
                    c8:a1:ee:73:ff:b0:eb:37:62:f1:0c:2f:15:2a:b5:
                    41:7d:e0:5a:cd:85:a2:12:40:a6:4a:34:e9:66:fd:
                    31:9b:7a:1a:a6:00:da:5a:f3:1a:1d:e8:1f:c9:0c:
                    25:10:6f:38:98:4c:cc:c4:e2:f6:c2:e3:9e:e9:1b:
                    ba:23:34:53:77:2a:ce:12:89:79:ca:d8:e7:88:2b:
                    dc:cc:2c:54:fd:24:74:15:08:61:aa:d7:d4:97:20:
                    bf:0c:f8:89:d0:19:34:df:15:e6:8b:91:71:0a:e0:
                    1d:eb:8e:90:9a:06:55:47:05:e0:cb:37:9a:4a:d4:
                    32:ff:03:02:bb:8b:ec:92:9a:c1:44:28:cd:e6:32:
                    ea:30:7b:05:7a:7f:23:17:9c:5c:2e:7e:88:05:87:
                    80:9f
                Exponent: 65537 (0x10001)
        X509v3 extensions:
            X509v3 Basic Constraints: 
                CA:FALSE
            Netscape Comment: 
                OpenSSL Generated Certificate
            X509v3 Subject Key Identifier: 
                CF:30:C7:9E:71:79:BB:9D:07:AC:E4:78:FE:CE:E2:6C:2B:17:E4:EB
            X509v3 Authority Key Identifier: 
                keyid:BB:D0:17:29:5A:A9:9E:DC:93:BC:46:D4:0E:8A:25:A6:48:09:D0:3B

    Signature Algorithm: sha1WithRSAEncryption
         53:76:28:9c:fb:1b:33:48:03:26:c6:3e:80:44:69:be:a7:ef:
         1f:3a:87:5e:82:58:9b:30:28:63:a1:e0:3b:35:b1:90:f7:b7:
         a4:00:a9:53:9f:8a:70:39:83:74:ed:c7:10:9a:a1:86:a4:8f:
         b9:2a:a1:22:dc:0e:92:7e:3f:fb:47:1a:4b:ec:80:24:38:fd:
         c2:f7:de:e1:e4:b9:2b:f8:5e:44:da:cd:29:12:7e:9e:6a:5a:
         3b:3a:09:a5:8c:01:0a:e0:fd:f1:4c:37:77:32:0f:01:80:71:
         84:c9:e5:d8:ed:d4:d5:f3:9d:e8:59:94:cd:13:61:21:15:da:
         50:a0:38:35:79:91:47:6c:fb:25:e2:19:f9:2e:85:be:62:2a:
         1f:5b:8d:21:e4:f0:5b:73:3b:a4:a4:55:83:f7:67:2a:00:4a:
         3b:bd:15:b8:d2:b1:75:9b:3e:5a:75:13:70:ba:b0:36:74:ec:
         36:53:4b:9a:1e:30:d6:b2:f1:a4:3a:ce:21:34:4c:d9:59:a4:
         ea:71:d8:ff:09:12:06:4e:8c:40:71:10:43:3b:e7:6b:6a:4f:
         68:a6:02:c5:f9:2e:f2:dc:4c:6d:b3:bf:ba:d8:a9:bd:5a:81:
         5b:64:df:9c:2f:45:86:e3:e3:62:4e:cd:57:ee:64:b8:78:f5:
         8d:ec:46:34
-----BEGIN CERTIFICATE-----
MIIECTCCAvGgAwIBAgIBLjANBgkqhkiG9w0BAQUFADCBjzELMAkGA1UEBhMCVUsx
EzARBgNVBAgMCkRlcmJ5c2hpcmUxDjAMBgNVBAcMBURlcmJ5MRwwGgYDVQQKDBNV
bml2ZXJzaXR5IG9mIERlcmJ5MSwwKgYDVQQLDCNTY2hvb2wgb2YgQ29tcHV0aW5n
IGFuZCBNYXRoZW1hdGljczEPMA0GA1UEAwwGNUNDNTE1MB4XDTEyMTEyNTE5MTcx
OVoXDTEzMTEyNTE5MTcxOVowgYIxCzAJBgNVBAYTAlVLMRMwEQYDVQQIDApEZXJi
eXNoaXJlMRwwGgYDVQQKDBNVbml2ZXJzaXR5IG9mIERlcmJ5MSwwKgYDVQQLDCNT
Y2hvb2wgb2YgQ29tcHV0aW5nIGFuZCBNYXRoZW1hdGljczESMBAGA1UEAwwJMTAw
MjE1Mjg2MIIBIjANBgkqhkiG9w0BAQEFAAOCAQ8AMIIBCgKCAQEAuflUndC3hZZC
LXobtMSgUfezBW8WgJ4pVCuOALtpHq7RwSnZyhlP0peVqSGt4zZU8sg0xGLKz4iY
jdywMhxFLXwsJUCWkbi9WYA5n166l/OE/qMFxQE6RLjtEyyiKXCO7U+xFcYFxYjI
oe5z/7DrN2LxDC8VKrVBfeBazYWiEkCmSjTpZv0xm3oapgDaWvMaHegfyQwlEG84
mEzMxOL2wuOe6Ru6IzRTdyrOEol5ytjniCvczCxU/SR0FQhhqtfUlyC/DPiJ0Bk0
3xXmi5FxCuAd646QmgZVRwXgyzeaStQy/wMCu4vskprBRCjN5jLqMHsFen8jF5xc
Ln6IBYeAnwIDAQABo3sweTAJBgNVHRMEAjAAMCwGCWCGSAGG+EIBDQQfFh1PcGVu
U1NMIEdlbmVyYXRlZCBDZXJ0aWZpY2F0ZTAdBgNVHQ4EFgQUzzDHnnF5u50HrOR4
/s7ibCsX5OswHwYDVR0jBBgwFoAUu9AXKVqpntyTvEbUDoolpkgJ0DswDQYJKoZI
hvcNAQEFBQADggEBAFN2KJz7GzNIAybGPoBEab6n7x86h16CWJswKGOh4Ds1sZD3
t6QAqVOfinA5g3TtxxCaoYakj7kqoSLcDpJ+P/tHGkvsgCQ4/cL33uHkuSv4XkTa
zSkSfp5qWjs6CaWMAQrg/fFMN3cyDwGAcYTJ5djt1NXznehZlM0TYSEV2lCgODV5
kUds+yXiGfkuhb5iKh9bjSHk8FtzO6SkVYP3ZyoASju9FbjSsXWbPlp1E3C6sDZ0
7DZTS5oeMNay8aQ6ziE0TNlZpOpx2P8JEgZOjEBxEEM752tqT2imAsX5LvLcTG2z
v7rYqb1agVtk35wvRYbj42JOzVfuZLh49Y3sRjQ=
-----END CERTIFICATE-----
